target datalayout = "e-m:e-p270:32:32-p271:32:32-p272:64:64-i64:64-i128:128-f80:128-n8:16:32:64-S128"
target triple = "x86_64-pc-linux-gnu"

%struct.AVFilterContext = type { ptr, ptr, ptr, ptr, ptr, i32, ptr, ptr, i32, ptr, ptr, i32, i32, ptr, ptr, ptr, ptr, i32, ptr, i32, i32 }
%struct.MaskFunContext = type { ptr, i32, i32, i32, i32, i32, [4 x i32], [4 x i32], [4 x i32], i32, i32, i32, i64, ptr, ptr, ptr, ptr }
%struct.AVChannelLayout = type { i32, i32, %union.anon.1, ptr }
%union.anon.1 = type { i64 }
%struct.AVRational = type { i32, i32 }
%struct.AVFrame = type { [8 x ptr], [8 x i32], ptr, i32, i32, i32, i32, i32, %struct.AVRational, i64, i64, %struct.AVRational, i32, ptr, i32, i32, [8 x ptr], ptr, i32, ptr, i32, i32, i32, i32, i32, i32, i32, i64, ptr, i32, ptr, ptr, i64, i64, i64, i64, ptr, %struct.AVChannelLayout, i64 }

; Function Attrs: nounwind uwtable
define internal i32 @getsum8(ptr noundef %0, ptr noundef %1) #1 {
  %3 = alloca i32, align 4
  %4 = alloca ptr, align 8
  %5 = alloca ptr, align 8
  %6 = alloca ptr, align 8
  %7 = alloca i64, align 8
  %8 = alloca i32, align 4
  %9 = alloca i32, align 4
  %10 = alloca i32, align 4
  %11 = alloca i32, align 4
  %12 = alloca ptr, align 8
  %13 = alloca i32, align 4
  %14 = alloca i32, align 4
  %15 = alloca i32, align 4
  store ptr %0, ptr %4, align 8, !tbaa !4
  store ptr %1, ptr %5, align 8, !tbaa !33
  call void @llvm.lifetime.start.p0(i64 8, ptr %6) #7
  %16 = load ptr, ptr %4, align 8, !tbaa !4
  %17 = getelementptr inbounds nuw %struct.AVFilterContext, ptr %16, i32 0, i32 9
  %18 = load ptr, ptr %17, align 8, !tbaa !9
  store ptr %18, ptr %6, align 8, !tbaa !22
  call void @llvm.lifetime.start.p0(i64 8, ptr %7) #7
  store i64 0, ptr %7, align 8, !tbaa !74
  call void @llvm.lifetime.start.p0(i64 4, ptr %8) #7
  store i32 0, ptr %8, align 4, !tbaa !25
  br label %19

19:                                               ; preds = %104, %2
  %20 = load i32, ptr %8, align 4, !tbaa !25
  %21 = load ptr, ptr %6, align 8, !tbaa !22
  %22 = getelementptr inbounds nuw %struct.MaskFunContext, ptr %21, i32 0, i32 9
  %23 = load i32, ptr %22, align 4, !tbaa !57
  %24 = icmp slt i32 %20, %23
  br i1 %24, label %25, label %107

25:                                               ; preds = %19
  call void @llvm.lifetime.start.p0(i64 4, ptr %9) #7
  %26 = load ptr, ptr %5, align 8, !tbaa !33
  %27 = getelementptr inbounds nuw %struct.AVFrame, ptr %26, i32 0, i32 1
  %28 = load i32, ptr %8, align 4, !tbaa !25
  %29 = sext i32 %28 to i64
  %30 = getelementptr inbounds [8 x i32], ptr %27, i64 0, i64 %29
  %31 = load i32, ptr %30, align 4, !tbaa !25
  %32 = sdiv i32 %31, 1
  store i32 %32, ptr %9, align 4, !tbaa !25
  call void @llvm.lifetime.start.p0(i64 4, ptr %10) #7
  %33 = load ptr, ptr %6, align 8, !tbaa !22
  %34 = getelementptr inbounds nuw %struct.MaskFunContext, ptr %33, i32 0, i32 7
  %35 = load i32, ptr %8, align 4, !tbaa !25
  %36 = sext i32 %35 to i64
  %37 = getelementptr inbounds [4 x i32], ptr %34, i64 0, i64 %36
  %38 = load i32, ptr %37, align 4, !tbaa !25
  store i32 %38, ptr %10, align 4, !tbaa !25
  call void @llvm.lifetime.start.p0(i64 4, ptr %11) #7
  %39 = load ptr, ptr %6, align 8, !tbaa !22
  %40 = getelementptr inbounds nuw %struct.MaskFunContext, ptr %39, i32 0, i32 8
  %41 = load i32, ptr %8, align 4, !tbaa !25
  %42 = sext i32 %41 to i64
  %43 = getelementptr inbounds [4 x i32], ptr %40, i64 0, i64 %42
  %44 = load i32, ptr %43, align 4, !tbaa !25
  store i32 %44, ptr %11, align 4, !tbaa !25
  call void @llvm.lifetime.start.p0(i64 8, ptr %12) #7
  %45 = load ptr, ptr %5, align 8, !tbaa !33
  %46 = getelementptr inbounds nuw %struct.AVFrame, ptr %45, i32 0, i32 0
  %47 = load i32, ptr %8, align 4, !tbaa !25
  %48 = sext i32 %47 to i64
  %49 = getelementptr inbounds [8 x ptr], ptr %46, i64 0, i64 %48
  %50 = load ptr, ptr %49, align 8, !tbaa !24
  store ptr %50, ptr %12, align 8, !tbaa !24
  %51 = load i32, ptr %8, align 4, !tbaa !25
  %52 = shl i32 1, %51
  %53 = load ptr, ptr %6, align 8, !tbaa !22
  %54 = getelementptr inbounds nuw %struct.MaskFunContext, ptr %53, i32 0, i32 3
  %55 = load i32, ptr %54, align 8, !tbaa !68
  %56 = and i32 %52, %55
  %57 = icmp ne i32 %56, 0
  br i1 %57, label %59, label %58

58:                                               ; preds = %25
  store i32 4, ptr %13, align 4
  br label %101

59:                                               ; preds = %25
  call void @llvm.lifetime.start.p0(i64 4, ptr %14) #7
  store i32 0, ptr %14, align 4, !tbaa !25
  br label %60

60:                                               ; preds = %95, %59
  %61 = load i32, ptr %14, align 4, !tbaa !25
  %62 = load i32, ptr %11, align 4, !tbaa !25
  %63 = icmp slt i32 %61, %62
  br i1 %63, label %65, label %64

64:                                               ; preds = %60
  store i32 5, ptr %13, align 4
  br label %98

65:                                               ; preds = %60
  call void @llvm.lifetime.start.p0(i64 4, ptr %15) #7
  store i32 0, ptr %15, align 4, !tbaa !25
  br label %66

66:                                               ; preds = %80, %65
  %67 = load i32, ptr %15, align 4, !tbaa !25
  %68 = load i32, ptr %10, align 4, !tbaa !25
  %69 = icmp slt i32 %67, %68
  br i1 %69, label %71, label %70

70:                                               ; preds = %66
  store i32 8, ptr %13, align 4
  call void @llvm.lifetime.end.p0(i64 4, ptr %15) #7
  br label %83

71:                                               ; preds = %66
  %72 = load ptr, ptr %12, align 8, !tbaa !24
  %73 = load i32, ptr %15, align 4, !tbaa !25
  %74 = sext i32 %73 to i64
  %75 = getelementptr inbounds i8, ptr %72, i64 %74
  %76 = load i8, ptr %75, align 1, !tbaa !69
  %77 = zext i8 %76 to i64
  %78 = load i64, ptr %7, align 8, !tbaa !74
  %79 = add i64 %78, %77
  store i64 %79, ptr %7, align 8, !tbaa !74
  br label %80

80:                                               ; preds = %71
  %81 = load i32, ptr %15, align 4, !tbaa !25
  %82 = add nsw i32 %81, 1
  store i32 %82, ptr %15, align 4, !tbaa !25
  br label %66, !llvm.loop !75

83:                                               ; preds = %70
  %84 = load i64, ptr %7, align 8, !tbaa !74
  %85 = load ptr, ptr %6, align 8, !tbaa !22
  %86 = getelementptr inbounds nuw %struct.MaskFunContext, ptr %85, i32 0, i32 12
  %87 = load i64, ptr %86, align 8, !tbaa !76
  %88 = icmp uge i64 %84, %87
  br i1 %88, label %89, label %90

89:                                               ; preds = %83
  store i32 1, ptr %3, align 4
  store i32 1, ptr %13, align 4
  br label %98

90:                                               ; preds = %83
  %91 = load i32, ptr %9, align 4, !tbaa !25
  %92 = load ptr, ptr %12, align 8, !tbaa !24
  %93 = sext i32 %91 to i64
  %94 = getelementptr inbounds i8, ptr %92, i64 %93
  store ptr %94, ptr %12, align 8, !tbaa !24
  br label %95

95:                                               ; preds = %90
  %96 = load i32, ptr %14, align 4, !tbaa !25
  %97 = add nsw i32 %96, 1
  store i32 %97, ptr %14, align 4, !tbaa !25
  br label %60, !llvm.loop !77

98:                                               ; preds = %89, %64
  call void @llvm.lifetime.end.p0(i64 4, ptr %14) #7
  %99 = load i32, ptr %13, align 4
  switch i32 %99, label %101 [
    i32 5, label %100
  ]

100:                                              ; preds = %98
  store i32 0, ptr %13, align 4
  br label %101

101:                                              ; preds = %100, %98, %58
  call void @llvm.lifetime.end.p0(i64 8, ptr %12) #7
  call void @llvm.lifetime.end.p0(i64 4, ptr %11) #7
  call void @llvm.lifetime.end.p0(i64 4, ptr %10) #7
  call void @llvm.lifetime.end.p0(i64 4, ptr %9) #7
  %102 = load i32, ptr %13, align 4
  switch i32 %102, label %108 [
    i32 0, label %103
    i32 4, label %104
  ]

103:                                              ; preds = %101
  br label %104

104:                                              ; preds = %103, %101
  %105 = load i32, ptr %8, align 4, !tbaa !25
  %106 = add nsw i32 %105, 1
  store i32 %106, ptr %8, align 4, !tbaa !25
  br label %19, !llvm.loop !78

107:                                              ; preds = %19
  store i32 0, ptr %3, align 4
  store i32 1, ptr %13, align 4
  br label %108

108:                                              ; preds = %107, %101
  call void @llvm.lifetime.end.p0(i64 4, ptr %8) #7
  call void @llvm.lifetime.end.p0(i64 8, ptr %7) #7
  call void @llvm.lifetime.end.p0(i64 8, ptr %6) #7
  %109 = load i32, ptr %3, align 4
  ret i32 %109
}