; Function Attrs: nofree norecurse nosync nounwind memory(read, inaccessiblemem: none) uwtable
define internal range(i32 0, 2) i32 @getsum8(ptr noundef readonly captures(none) %0, ptr noundef readonly captures(none) %1) #5 {
  %3 = getelementptr inbounds nuw i8, ptr %0, i64 72
  %4 = load ptr, ptr %3, align 8, !tbaa !4
  %5 = getelementptr inbounds nuw i8, ptr %4, i64 76
  %6 = load i32, ptr %5, align 4, !tbaa !26
  %7 = icmp sgt i32 %6, 0
  br i1 %7, label %.lr.ph, label %.loopexit44

.lr.ph:                                           ; preds = %2
  %8 = getelementptr inbounds nuw i8, ptr %1, i64 64
  %9 = getelementptr inbounds nuw i8, ptr %4, i64 44
  %10 = getelementptr inbounds nuw i8, ptr %4, i64 60
  %11 = getelementptr inbounds nuw i8, ptr %4, i64 16
  %12 = load i32, ptr %11, align 8, !tbaa !27
  %13 = getelementptr inbounds nuw i8, ptr %4, i64 88
  %wide.trip.count64 = zext nneg i32 %6 to i64
  br label %14

14:                                               ; preds = %.lr.ph, %.loopexit
  %indvars.iv61 = phi i64 [ 0, %.lr.ph ], [ %indvars.iv.next62, %.loopexit ]
  %.03455 = phi i64 [ 0, %.lr.ph ], [ %.135.ph, %.loopexit ]
  %15 = getelementptr inbounds nuw [4 x i32], ptr %9, i64 0, i64 %indvars.iv61
  %16 = load i32, ptr %15, align 4, !tbaa !28
  %17 = getelementptr inbounds nuw [4 x i32], ptr %10, i64 0, i64 %indvars.iv61
  %18 = load i32, ptr %17, align 4, !tbaa !28
  %19 = trunc nuw nsw i64 %indvars.iv61 to i32
  %20 = shl nuw i32 1, %19
  %21 = and i32 %12, %20
  %.not = icmp ne i32 %21, 0
  %.not4049 = icmp sgt i32 %18, 0
  %or.cond = select i1 %.not, i1 %.not4049, i1 false
  br i1 %or.cond, label %.preheader.lr.ph, label %.loopexit

.preheader.lr.ph:                                 ; preds = %14
  %22 = getelementptr inbounds nuw [8 x i32], ptr %8, i64 0, i64 %indvars.iv61
  %23 = load i32, ptr %22, align 4, !tbaa !28
  %24 = icmp sgt i32 %16, 0
  %25 = load i64, ptr %13, align 8, !tbaa !25
  %26 = sext i32 %23 to i64
  br i1 %24, label %.preheader.us.preheader, label %.preheader.lr.ph.split

.preheader.us.preheader:                          ; preds = %.preheader.lr.ph
  %27 = getelementptr inbounds nuw [8 x ptr], ptr %1, i64 0, i64 %indvars.iv61
  %28 = load ptr, ptr %27, align 8, !tbaa !34
  %wide.trip.count = zext nneg i32 %16 to i64
  br label %.preheader.us

.preheader.us:                                    ; preds = %.preheader.us.preheader, %29
  %.02952.us = phi i32 [ %31, %29 ], [ 0, %.preheader.us.preheader ]
  %.03151.us = phi ptr [ %30, %29 ], [ %28, %.preheader.us.preheader ]
  %.23650.us = phi i64 [ %36, %29 ], [ %.03455, %.preheader.us.preheader ]
  br label %32

29:                                               ; preds = %._crit_edge.us
  %30 = getelementptr inbounds i8, ptr %.03151.us, i64 %26
  %31 = add nuw nsw i32 %.02952.us, 1
  %exitcond60.not = icmp eq i32 %31, %18
  br i1 %exitcond60.not, label %.loopexit, label %.preheader.us, !llvm.loop !77

32:                                               ; preds = %.preheader.us, %32
  %indvars.iv = phi i64 [ 0, %.preheader.us ], [ %indvars.iv.next, %32 ]
  %.447.us = phi i64 [ %.23650.us, %.preheader.us ], [ %36, %32 ]
  %33 = getelementptr inbounds nuw i8, ptr %.03151.us, i64 %indvars.iv
  %34 = load i8, ptr %33, align 1, !tbaa !73
  %35 = zext i8 %34 to i64
  %36 = add i64 %.447.us, %35
  %indvars.iv.next = add nuw nsw i64 %indvars.iv, 1
  %exitcond.not = icmp eq i64 %indvars.iv.next, %wide.trip.count
  br i1 %exitcond.not, label %._crit_edge.us, label %32, !llvm.loop !78

._crit_edge.us:                                   ; preds = %32
  %.not39.us = icmp ult i64 %36, %25
  br i1 %.not39.us, label %29, label %.loopexit44

.preheader.lr.ph.split:                           ; preds = %.preheader.lr.ph
  %.not39 = icmp ult i64 %.03455, %25
  br i1 %.not39, label %.loopexit, label %.loopexit44

.loopexit:                                        ; preds = %29, %.preheader.lr.ph.split, %14
  %.135.ph = phi i64 [ %.03455, %14 ], [ %.03455, %.preheader.lr.ph.split ], [ %36, %29 ]
  %indvars.iv.next62 = add nuw nsw i64 %indvars.iv61, 1
  %exitcond65.not = icmp eq i64 %indvars.iv.next62, %wide.trip.count64
  br i1 %exitcond65.not, label %.loopexit44, label %14, !llvm.loop !79

.loopexit44:                                      ; preds = %.loopexit, %.preheader.lr.ph.split, %._crit_edge.us, %2
  %.3 = phi i32 [ 0, %2 ], [ 1, %._crit_edge.us ], [ 1, %.preheader.lr.ph.split ], [ 0, %.loopexit ]
  ret i32 %.3
}